; Function Attrs: mustprogress nounwind uwtable
define internal void @"_ZN4absl12lts_2023080222internal_any_invocable23RemoteManagerNontrivialIZN9grpc_core12_GLOBAL__N_111MaybeTarpitIZL14close_from_apiP21grpc_chttp2_transportP18grpc_chttp2_streamNS0_6StatusEbE3$_0EEvS7_bT_EUlvE_EEvNS1_14FunctionToCallEPNS1_15TypeErasedStateESG_"(i1 noundef zeroext %operation, ptr nocapture noundef readonly %from, ptr nocapture noundef writeonly %to) #6 {
entry:
  %0 = load ptr, ptr %from, align 16
  br i1 %operation, label %sw.bb2, label %sw.bb

sw.bb:                                            ; preds = %entry
  store ptr %0, ptr %to, align 16
  br label %do.end

sw.bb2:                                           ; preds = %entry
  %isnull = icmp eq ptr %0, null
  br i1 %isnull, label %do.end, label %delete.notnull

delete.notnull:                                   ; preds = %sw.bb2
  tail call fastcc void @"_ZZN9grpc_core12_GLOBAL__N_111MaybeTarpitIZL14close_from_apiP21grpc_chttp2_transportP18grpc_chttp2_streamN4absl12lts_202308026StatusEbE3$_0EEvS3_bT_ENUlvE_D2Ev"(ptr noundef nonnull align 8 dereferenceable(72) %0) #34
  tail call void @_ZdlPv(ptr noundef nonnull %0) #35
  br label %do.end

do.end:                                           ; preds = %sw.bb2, %delete.notnull, %sw.bb
  ret void
}